(dp0
S'tat'
p1
ccopy_reg
_reconstructor
p2
(cBio.SeqFeature
SeqFeature
p3
c__builtin__
object
p4
Ntp5
Rp6
(dp7
S'qualifiers'
p8
(dp9
S'note'
p10
(lp11
g1
assS'type'
p12
S'gene'
p13
sS'location'
p14
g2
(cBio.SeqFeature
CompoundLocation
p15
g4
Ntp16
Rp17
(dp18
S'operator'
p19
S'join'
p20
sS'parts'
p21
(lp22
g2
(cBio.SeqFeature
FeatureLocation
p23
g4
Ntp24
Rp25
(dp26
S'ref'
p27
NsS'_end'
p28
g2
(cBio.SeqFeature
ExactPosition
p29
c__builtin__
int
p30
I6045
tp31
Rp32
sS'_start'
p33
g2
(g29
g30
I5830
tp34
Rp35
sS'_strand'
p36
I1
sS'ref_db'
p37
Nsbag2
(g23
g4
Ntp38
Rp39
(dp40
g27
Nsg28
g2
(g29
g30
I8469
tp41
Rp42
sg33
g2
(g29
g30
I8378
tp43
Rp44
sg36
I1
sg37
NsbasbsS'_sub_features'
p45
(lp46
g2
(g3
g4
Ntp47
Rp48
(dp49
g8
(dp50
sg12
g13
sg14
g25
sg45
(lp51
sS'id'
p52
S'<unknown id>'
p53
sbag2
(g3
g4
Ntp54
Rp55
(dp56
g8
(dp57
sg12
g13
sg14
g39
sg45
(lp58
sg52
g53
sbasg52
g53
sbsS'vpu'
p59
g2
(g3
g4
Ntp60
Rp61
(dp62
g8
(dp63
S'note'
p64
(lp65
g59
assg12
S'gene'
p66
sg14
g2
(g23
g4
Ntp67
Rp68
(dp69
g27
Nsg28
g2
(g29
g30
I6310
tp70
Rp71
sg33
g2
(g29
g30
I6061
tp72
Rp73
sg36
I1
sg37
Nsbsg45
(lp74
sg52
g53
sbsS'vif'
p75
g2
(g3
g4
Ntp76
Rp77
(dp78
g8
(dp79
S'note'
p80
(lp81
g75
assg12
S'gene'
p82
sg14
g2
(g23
g4
Ntp83
Rp84
(dp85
g27
Nsg28
g2
(g29
g30
I5619
tp86
Rp87
sg33
g2
(g29
g30
I5040
tp88
Rp89
sg36
I1
sg37
Nsbsg45
(lp90
sg52
g53
sbsS'vpr'
p91
g2
(g3
g4
Ntp92
Rp93
(dp94
g8
(dp95
S'note'
p96
(lp97
g91
assg12
S'gene'
p98
sg14
g2
(g23
g4
Ntp99
Rp100
(dp101
g27
Nsg28
g2
(g29
g30
I5850
tp102
Rp103
sg33
g2
(g29
g30
I5558
tp104
Rp105
sg36
I1
sg37
Nsbsg45
(lp106
sg52
g53
sbsS'nef'
p107
g2
(g3
g4
Ntp108
Rp109
(dp110
g8
(dp111
S'note'
p112
(lp113
g107
assg12
S'gene'
p114
sg14
g2
(g23
g4
Ntp115
Rp116
(dp117
g27
Nsg28
g2
(g29
g30
I9417
tp118
Rp119
sg33
g2
(g29
g30
I8796
tp120
Rp121
sg36
I1
sg37
Nsbsg45
(lp122
sg52
g53
sbsS'rev'
p123
g2
(g3
g4
Ntp124
Rp125
(dp126
g8
(dp127
S'note'
p128
(lp129
g123
assg12
S'gene'
p130
sg14
g2
(g15
g4
Ntp131
Rp132
(dp133
g19
S'join'
p134
sg21
(lp135
g2
(g23
g4
Ntp136
Rp137
(dp138
g27
Nsg28
g2
(g29
g30
I6045
tp139
Rp140
sg33
g2
(g29
g30
I5969
tp141
Rp142
sg36
I1
sg37
Nsbag2
(g23
g4
Ntp143
Rp144
(dp145
g27
Nsg28
g2
(g29
g30
I8653
tp146
Rp147
sg33
g2
(g29
g30
I8378
tp148
Rp149
sg36
I1
sg37
Nsbasbsg45
(lp150
g2
(g3
g4
Ntp151
Rp152
(dp153
g8
(dp154
sg12
g130
sg14
g137
sg45
(lp155
sg52
g53
sbag2
(g3
g4
Ntp156
Rp157
(dp158
g8
(dp159
sg12
g130
sg14
g144
sg45
(lp160
sg52
g53
sbasg52
g53
sbsS'pol'
p161
g2
(g3
g4
Ntp162
Rp163
(dp164
g8
(dp165
S'note'
p166
(lp167
g161
assg12
S'gene'
p168
sg14
g2
(g23
g4
Ntp169
Rp170
(dp171
g27
Nsg28
g2
(g29
g30
I5096
tp172
Rp173
sg33
g2
(g29
g30
I2084
tp174
Rp175
sg36
I1
sg37
Nsbsg45
(lp176
sg52
g53
sbsS'env'
p177
g2
(g3
g4
Ntp178
Rp179
(dp180
g8
(dp181
S'note'
p182
(lp183
g177
assg12
S'gene'
p184
sg14
g2
(g23
g4
Ntp185
Rp186
(dp187
g27
Nsg28
g2
(g29
g30
I8795
tp188
Rp189
sg33
g2
(g29
g30
I6224
tp190
Rp191
sg36
I1
sg37
Nsbsg45
(lp192
sg52
g53
sbsS'gag'
p193
g2
(g3
g4
Ntp194
Rp195
(dp196
g8
(dp197
S'note'
p198
(lp199
g193
assg12
S'gene'
p200
sg14
g2
(g23
g4
Ntp201
Rp202
(dp203
g27
Nsg28
g2
(g29
g30
I2292
tp204
Rp205
sg33
g2
(g29
g30
I789
tp206
Rp207
sg36
I1
sg37
Nsbsg45
(lp208
sg52
g53
sbs.